; Function Attrs: nounwind sspstrong uwtable
define hidden void @rb_id_table_clear(ptr noundef captures(none) initializes((4, 12)) %0) local_unnamed_addr #0 {
  %2 = getelementptr inbounds nuw i8, ptr %0, i64 4
  store i32 0, ptr %2, align 4, !tbaa !86
  %3 = getelementptr inbounds nuw i8, ptr %0, i64 8
  store i32 0, ptr %3, align 8, !tbaa !87
  %4 = load i32, ptr %0, align 8, !tbaa !82
  %5 = sext i32 %4 to i64
  %6 = icmp slt i32 %4, 0
  br i1 %6, label %7, label %rbimpl_size_mul_or_raise.exit, !prof !33

7:                                                ; preds = %1
  tail call void @ruby_malloc_size_overflow(i64 noundef 16, i64 noundef range(i64 -2147483648, 2147483648) %5) #20
  unreachable

rbimpl_size_mul_or_raise.exit:                    ; preds = %1
  %8 = getelementptr inbounds nuw i8, ptr %0, i64 16
  %9 = load ptr, ptr %8, align 8, !tbaa !85
  %10 = shl nuw nsw i64 %5, 4
  tail call void @llvm.memset.p0.i64(ptr noundef nonnull align 1 %9, i8 noundef 0, i64 noundef range(i64 -51539607552, 51539607529) %10, i1 noundef false) #19
  ret void
}